Certificate:
    Data:
        Version: 3 (0x2)
        Serial Number: 2 (0x2)
    Signature Algorithm: sha1WithRSAEncryption
        Issuer: C=DE, ST=Berlin, L=Berlin, O=FooBar Inc, OU=Testing CA, CN=foobar.tld/emailAddress=baz@foobar.tld
        Validity
            Not Before: Apr 11 09:56:00 2014 GMT
            Not After : Apr 11 09:56:00 2015 GMT
        Subject: C=DE, ST=Berlin, L=Berlin, O=FooBar Inc, OU=Testing, CN=foobar.tld/emailAddress=baz@foobar.tld
        Subject Public Key Info:
            Public Key Algorithm: rsaEncryption
                Public-Key: (2048 bit)
                Modulus:
                    00:a3:1d:97:1b:41:f8:94:cd:c6:5b:e0:c5:32:df:
                    8f:3b:5c:56:f1:98:ce:44:a0:23:04:c3:05:df:65:
                    21:b4:79:0e:3f:d4:d5:f7:25:c7:ad:0c:bd:8d:bc:
                    a8:f5:31:b0:55:d7:3e:fa:8e:05:1e:d0:a6:a6:92:
                    2c:c8:9d:f3:e4:b5:b1:e8:be:d0:73:a6:6a:3e:b3:
                    3e:75:ac:e9:5f:b6:d4:fc:c6:12:50:b3:63:13:b7:
                    2a:69:e1:ca:35:d1:58:fb:62:7e:dd:0a:9b:70:98:
                    3c:72:13:2e:c8:6c:23:a3:79:84:07:53:06:65:de:
                    23:20:04:ff:18:eb:6e:bc:c3:8d:b1:ff:b7:88:ab:
                    76:44:9c:b7:b1:ab:29:30:20:6a:56:53:fb:ca:24:
                    57:27:53:34:d9:c9:c5:2c:0c:d7:2c:4f:a8:c8:9e:
                    bd:6e:ff:34:e8:64:3f:b0:ec:d2:aa:a0:0a:48:d6:
                    e1:f1:79:02:c0:b4:9c:f9:08:83:74:41:c7:4e:bb:
                    a9:bd:5f:d5:5d:1b:f5:08:c5:0b:d6:31:6e:93:65:
                    3e:2c:a6:3f:69:42:7e:a2:86:fd:65:a2:d3:d0:3b:
                    97:33:9b:8d:0b:af:a8:a1:f3:54:49:fb:a9:62:e0:
                    30:96:ba:16:ea:5f:29:58:0c:0c:9b:f4:5b:d4:2f:
                    a7:43
                Exponent: 65537 (0x10001)
        X509v3 extensions:
            X509v3 Basic Constraints: critical
                CA:FALSE
            X509v3 Subject Key Identifier: 
                BD:D1:3F:DA:2D:34:2D:5E:2A:1A:C0:99:77:3B:24:93:41:88:72:6F
            X509v3 Key Usage: 
                Digital Signature, Non Repudiation, Key Encipherment
            Netscape Cert Type: 
                SSL Server
            Netscape Comment: 
                xca certificate
    Signature Algorithm: sha1WithRSAEncryption
         75:9d:19:f1:3f:b3:3f:a7:62:ed:17:8f:92:e7:5b:88:00:58:
         f2:ca:88:74:4b:96:b8:df:b2:1a:bb:81:68:74:9e:76:c4:e0:
         9b:61:ab:62:d7:e7:81:ad:47:71:e9:00:1f:0d:ce:fe:2f:6d:
         02:4a:87:ac:95:5f:bc:c5:0e:91:00:f4:2e:39:8d:75:12:54:
         21:42:68:d3:ab:b0:d4:15:34:b3:5c:3e:02:fc:8a:70:8d:41:
         74:80:06:55:31:d6:ff:85:5f:ba:b9:0f:33:3e:91:b4:a4:38:
         57:d0:e9:ae:74:d5:e0:64:89:00:40:2f:ee:bf:20:a1:bc:4c:
         db:b4:9e:5e:85:b8:f1:4f:2b:20:0d:22:42:0d:11:27:46:f5:
         77:72:84:d1:55:90:b4:77:e1:74:42:ca:69:24:85:fa:f7:fc:
         9f:16:c2:42:49:a3:e2:55:4a:c3:fc:6f:5e:c5:62:1f:f1:ed:
         e9:07:05:3d:84:c7:fd:7e:a4:c6:33:c3:70:bd:09:60:2e:a9:
         5d:1f:91:2e:ac:ac:23:fb:db:71:b8:9d:80:b2:40:3f:08:82:
         46:2c:8e:4b:18:fa:ab:33:a0:15:09:d7:9b:44:a7:03:11:56:
         ef:b3:e8:fd:65:d3:5f:83:15:d3:9c:58:d7:f0:5a:46:19:89:
         6f:13:c3:b8
-----BEGIN CERTIFICATE-----
MIIEAzCCAuugAwIBAgIBAjANBgkqhkiG9w0BAQUFADCBjTELMAkGA1UEBhMCREUx
DzANBgNVBAgTBkJlcmxpbjEPMA0GA1UEBxMGQmVybGluMRMwEQYDVQQKEwpGb29C
YXIgSW5jMRMwEQYDVQQLEwpUZXN0aW5nIENBMRMwEQYDVQQDEwpmb29iYXIudGxk
MR0wGwYJKoZIhvcNAQkBFg5iYXpAZm9vYmFyLnRsZDAeFw0xNDA0MTEwOTU2MDBa
Fw0xNTA0MTEwOTU2MDBaMIGKMQswCQYDVQQGEwJERTEPMA0GA1UECBMGQmVybGlu
MQ8wDQYDVQQHEwZCZXJsaW4xEzARBgNVBAoTCkZvb0JhciBJbmMxEDAOBgNVBAsT
B1Rlc3RpbmcxEzARBgNVBAMTCmZvb2Jhci50bGQxHTAbBgkqhkiG9w0BCQEWDmJh
ekBmb29iYXIudGxkMIIBIjANBgkqhkiG9w0BAQEFAAOCAQ8AMIIBCgKCAQEAox2X
G0H4lM3GW+DFMt+PO1xW8ZjORKAjBMMF32UhtHkOP9TV9yXHrQy9jbyo9TGwVdc+
+o4FHtCmppIsyJ3z5LWx6L7Qc6ZqPrM+dazpX7bU/MYSULNjE7cqaeHKNdFY+2J+
3QqbcJg8chMuyGwjo3mEB1MGZd4jIAT/GOtuvMONsf+3iKt2RJy3saspMCBqVlP7
yiRXJ1M02cnFLAzXLE+oyJ69bv806GQ/sOzSqqAKSNbh8XkCwLSc+QiDdEHHTrup
vV/VXRv1CMUL1jFuk2U+LKY/aUJ+oob9ZaLT0DuXM5uNC6+oofNUSfupYuAwlroW
6l8pWAwMm/Rb1C+nQwIDAQABo28wbTAMBgNVHRMBAf8EAjAAMB0GA1UdDgQWBBS9
0T/aLTQtXioawJl3OySTQYhybzALBgNVHQ8EBAMCBeAwEQYJYIZIAYb4QgEBBAQD
AgZAMB4GCWCGSAGG+EIBDQQRFg94Y2EgY2VydGlmaWNhdGUwDQYJKoZIhvcNAQEF
BQADggEBAHWdGfE/sz+nYu0Xj5LnW4gAWPLKiHRLlrjfshq7gWh0nnbE4Jthq2LX
54GtR3HpAB8Nzv4vbQJKh6yVX7zFDpEA9C45jXUSVCFCaNOrsNQVNLNcPgL8inCN
QXSABlUx1v+FX7q5DzM+kbSkOFfQ6a501eBkiQBAL+6/IKG8TNu0nl6FuPFPKyAN
IkINESdG9XdyhNFVkLR34XRCymkkhfr3/J8WwkJJo+JVSsP8b17FYh/x7ekHBT2E
x/1+pMYzw3C9CWAuqV0fkS6srCP723G4nYCyQD8IgkYsjksY+qszoBUJ15tEpwMR
Vu+z6P1l01+DFdOcWNfwWkYZiW8Tw7g=
-----END CERTIFICATE-----
